; Function Attrs: nounwind uwtable
define hidden void @shutdown_destructors() local_unnamed_addr #0 {
  %1 = alloca [1 x %struct.__jmp_buf_tag], align 16
  %2 = load i8, ptr getelementptr inbounds (%struct._zend_compiler_globals, ptr @compiler_globals, i64 0, i32 11), align 1
  %3 = and i8 %2, 1
  %.not = icmp eq i8 %3, 0
  br i1 %.not, label %5, label %4

4:                                                ; preds = %0
  store ptr @zend_unclean_zval_ptr_dtor, ptr getelementptr inbounds (%struct._zend_executor_globals, ptr @executor_globals, i64 0, i32 5, i32 9), align 8
  br label %5

5:                                                ; preds = %4, %0
  %6 = load ptr, ptr getelementptr inbounds (%struct._zend_executor_globals, ptr @executor_globals, i64 0, i32 7), align 8
  store ptr %1, ptr getelementptr inbounds (%struct._zend_executor_globals, ptr @executor_globals, i64 0, i32 7), align 8
  %7 = call i32 @__sigsetjmp(ptr noundef nonnull %1, i32 noundef 0) #25
  %8 = icmp eq i32 %7, 0
  br i1 %8, label %.preheader.preheader, label %12

.preheader.preheader:                             ; preds = %5
  %.pre = load i32, ptr getelementptr inbounds (%struct._zend_executor_globals, ptr @executor_globals, i64 0, i32 5, i32 5), align 4
  br label %.preheader

.preheader:                                       ; preds = %.preheader.preheader, %.preheader
  %9 = phi i32 [ %.pre, %.preheader.preheader ], [ %10, %.preheader ]
  call void @zend_hash_reverse_apply(ptr noundef nonnull getelementptr inbounds (%struct._zend_executor_globals, ptr @executor_globals, i64 0, i32 5), ptr noundef nonnull @zval_call_destructor) #24
  %10 = load i32, ptr getelementptr inbounds (%struct._zend_executor_globals, ptr @executor_globals, i64 0, i32 5, i32 5), align 4
  %.not4 = icmp eq i32 %9, %10
  br i1 %.not4, label %11, label %.preheader

11:                                               ; preds = %.preheader
  call void @zend_objects_store_call_destructors(ptr noundef nonnull getelementptr inbounds (%struct._zend_executor_globals, ptr @executor_globals, i64 0, i32 49)) #24
  br label %13

12:                                               ; preds = %5
  store ptr %6, ptr getelementptr inbounds (%struct._zend_executor_globals, ptr @executor_globals, i64 0, i32 7), align 8
  call void @zend_objects_store_mark_destructed(ptr noundef nonnull getelementptr inbounds (%struct._zend_executor_globals, ptr @executor_globals, i64 0, i32 49)) #24
  br label %13

13:                                               ; preds = %12, %11
  store ptr %6, ptr getelementptr inbounds (%struct._zend_executor_globals, ptr @executor_globals, i64 0, i32 7), align 8
  ret void
}